target datalayout = "e-m:e-p270:32:32-p271:32:32-p272:64:64-i64:64-i128:128-f80:128-n8:16:32:64-S128"
target triple = "x86_64-unknown-linux-gnu"

%"class.euf::ackerman" = type <{ ptr, ptr, %class.hashtable, ptr, ptr, i32, i32, i32, [4 x i8] }>
%class.hashtable = type { %class.core_hashtable.base, [4 x i8] }
%class.core_hashtable.base = type <{ ptr, i32, i32, i32 }>
%"struct.euf::ackerman::inference" = type <{ %class.dll_base, ptr, ptr, ptr, i32, i8, [3 x i8] }>
%class.dll_base = type { ptr, ptr }
%class.default_hash_entry = type { i32, i32, ptr }
%class.ast = type { i32, i24, i32, i32 }

; Function Attrs: mustprogress nounwind uwtable
define linkonce_odr hidden void @_ZN8dll_baseIN3euf8ackerman9inferenceEEC2Ev(ptr noundef nonnull align 8 dereferenceable(16) %this) unnamed_addr #4 comdat align 2 {
entry:
  %this.addr = alloca ptr, align 8
  store ptr %this, ptr %this.addr, align 8
  %this1 = load ptr, ptr %this.addr, align 8
  %m_next = getelementptr inbounds %class.dll_base, ptr %this1, i32 0, i32 0
  store ptr null, ptr %m_next, align 8
  %m_prev = getelementptr inbounds %class.dll_base, ptr %this1, i32 0, i32 1
  store ptr null, ptr %m_prev, align 8
  ret void
}

; Function Attrs: mustprogress nounwind uwtable
define linkonce_odr hidden void @_ZN8dll_baseIN3euf8ackerman9inferenceEE4initEPS2_(ptr noundef nonnull align 8 dereferenceable(16) %this, ptr noundef %t) #4 comdat align 2 {
entry:
  %this.addr = alloca ptr, align 8
  %t.addr = alloca ptr, align 8
  store ptr %this, ptr %this.addr, align 8
  store ptr %t, ptr %t.addr, align 8
  %this1 = load ptr, ptr %this.addr, align 8
  %0 = load ptr, ptr %t.addr, align 8
  %m_next = getelementptr inbounds %class.dll_base, ptr %this1, i32 0, i32 0
  store ptr %0, ptr %m_next, align 8
  %1 = load ptr, ptr %t.addr, align 8
  %m_prev = getelementptr inbounds %class.dll_base, ptr %this1, i32 0, i32 1
  store ptr %1, ptr %m_prev, align 8
  ret void
}

; Function Attrs: mustprogress nounwind uwtable
define linkonce_odr hidden void @_ZN3euf8ackerman9inferenceC2Ev(ptr noundef nonnull align 8 dereferenceable(45) %this) unnamed_addr #4 comdat align 2 {
entry:
  %this.addr = alloca ptr, align 8
  store ptr %this, ptr %this.addr, align 8
  %this1 = load ptr, ptr %this.addr, align 8
  call void @_ZN8dll_baseIN3euf8ackerman9inferenceEEC2Ev(ptr noundef nonnull align 8 dereferenceable(16) %this1) #3
  %a = getelementptr inbounds %"struct.euf::ackerman::inference", ptr %this1, i32 0, i32 1
  store ptr null, ptr %a, align 8
  %b = getelementptr inbounds %"struct.euf::ackerman::inference", ptr %this1, i32 0, i32 2
  store ptr null, ptr %b, align 8
  %c = getelementptr inbounds %"struct.euf::ackerman::inference", ptr %this1, i32 0, i32 3
  store ptr null, ptr %c, align 8
  %m_count = getelementptr inbounds %"struct.euf::ackerman::inference", ptr %this1, i32 0, i32 4
  store i32 0, ptr %m_count, align 8
  %is_cc = getelementptr inbounds %"struct.euf::ackerman::inference", ptr %this1, i32 0, i32 5
  store i8 0, ptr %is_cc, align 4
  ret void
}

; Function Attrs: mustprogress nounwind uwtable
define linkonce_odr hidden void @_ZN3ast7inc_refEv(ptr noundef nonnull align 4 dereferenceable(16) %this) #4 comdat align 2 {
entry:
  %this.addr = alloca ptr, align 8
  store ptr %this, ptr %this.addr, align 8
  %this1 = load ptr, ptr %this.addr, align 8
  %m_ref_count = getelementptr inbounds %class.ast, ptr %this1, i32 0, i32 2
  %0 = load i32, ptr %m_ref_count, align 4
  %inc = add i32 %0, 1
  store i32 %inc, ptr %m_ref_count, align 4
  ret void
}

; Function Attrs: mustprogress nounwind uwtable
define linkonce_odr hidden noundef nonnull align 8 dereferenceable(8) ptr @_ZN18default_hash_entryIPN3euf8ackerman9inferenceEE8get_dataEv(ptr noundef nonnull align 8 dereferenceable(16) %this) #4 comdat align 2 {
entry:
  %this.addr = alloca ptr, align 8
  store ptr %this, ptr %this.addr, align 8
  %this1 = load ptr, ptr %this.addr, align 8
  %m_data = getelementptr inbounds %class.default_hash_entry, ptr %this1, i32 0, i32 2
  ret ptr %m_data
}

; Function Attrs: mustprogress uwtable
define linkonce_odr hidden noundef zeroext i1 @_ZN14core_hashtableI18default_hash_entryIPN3euf8ackerman9inferenceEENS2_14inference_hashENS2_12inference_eqEE24insert_if_not_there_coreERKS4_RPS5_(ptr noundef nonnull align 8 dereferenceable(20) %this, ptr noundef nonnull align 8 dereferenceable(8) %e, ptr noundef nonnull align 8 dereferenceable(8) %et) #5 comdat align 2 {
entry:
  %this.addr = alloca ptr, align 8
  %e.addr = alloca ptr, align 8
  %et.addr = alloca ptr, align 8
  %temp = alloca ptr, align 8
  store ptr %this, ptr %this.addr, align 8
  store ptr %e, ptr %e.addr, align 8
  store ptr %et, ptr %et.addr, align 8
  %this1 = load ptr, ptr %this.addr, align 8
  %0 = load ptr, ptr %e.addr, align 8
  %1 = load ptr, ptr %0, align 8
  store ptr %1, ptr %temp, align 8
  %2 = load ptr, ptr %et.addr, align 8
  %call = call noundef zeroext i1 @_ZN14core_hashtableI18default_hash_entryIPN3euf8ackerman9inferenceEENS2_14inference_hashENS2_12inference_eqEE24insert_if_not_there_coreEOS4_RPS5_(ptr noundef nonnull align 8 dereferenceable(20) %this1, ptr noundef nonnull align 8 dereferenceable(8) %temp, ptr noundef nonnull align 8 dereferenceable(8) %2)
  ret i1 %call
}

; Function Attrs: mustprogress nounwind uwtable
define linkonce_odr hidden void @_ZN8dll_baseIN3euf8ackerman9inferenceEE13push_to_frontERPS2_S4_(ptr noundef nonnull align 8 dereferenceable(8) %list, ptr noundef %elem) #4 comdat align 2 {
entry:
  %list.addr = alloca ptr, align 8
  %elem.addr = alloca ptr, align 8
  %next = alloca ptr, align 8
  %prev = alloca ptr, align 8
  store ptr %list, ptr %list.addr, align 8
  store ptr %elem, ptr %elem.addr, align 8
  %0 = load ptr, ptr %list.addr, align 8
  %1 = load ptr, ptr %0, align 8
  %tobool = icmp ne ptr %1, null
  br i1 %tobool, label %if.else, label %if.then

if.then:                                          ; preds = %entry
  %2 = load ptr, ptr %elem.addr, align 8
  %3 = load ptr, ptr %list.addr, align 8
  store ptr %2, ptr %3, align 8
  %4 = load ptr, ptr %elem.addr, align 8
  %5 = load ptr, ptr %elem.addr, align 8
  %m_next = getelementptr inbounds %class.dll_base, ptr %5, i32 0, i32 0
  store ptr %4, ptr %m_next, align 8
  %6 = load ptr, ptr %elem.addr, align 8
  %7 = load ptr, ptr %elem.addr, align 8
  %m_prev = getelementptr inbounds %class.dll_base, ptr %7, i32 0, i32 1
  store ptr %6, ptr %m_prev, align 8
  br label %if.end12

if.else:                                          ; preds = %entry
  %8 = load ptr, ptr %list.addr, align 8
  %9 = load ptr, ptr %8, align 8
  %10 = load ptr, ptr %elem.addr, align 8
  %cmp = icmp ne ptr %9, %10
  br i1 %cmp, label %if.then1, label %if.end

if.then1:                                         ; preds = %if.else
  %11 = load ptr, ptr %elem.addr, align 8
  %m_next2 = getelementptr inbounds %class.dll_base, ptr %11, i32 0, i32 0
  %12 = load ptr, ptr %m_next2, align 8
  store ptr %12, ptr %next, align 8
  %13 = load ptr, ptr %elem.addr, align 8
  %m_prev3 = getelementptr inbounds %class.dll_base, ptr %13, i32 0, i32 1
  %14 = load ptr, ptr %m_prev3, align 8
  store ptr %14, ptr %prev, align 8
  %15 = load ptr, ptr %next, align 8
  %16 = load ptr, ptr %prev, align 8
  %m_next4 = getelementptr inbounds %class.dll_base, ptr %16, i32 0, i32 0
  store ptr %15, ptr %m_next4, align 8
  %17 = load ptr, ptr %prev, align 8
  %18 = load ptr, ptr %next, align 8
  %m_prev5 = getelementptr inbounds %class.dll_base, ptr %18, i32 0, i32 1
  store ptr %17, ptr %m_prev5, align 8
  %19 = load ptr, ptr %elem.addr, align 8
  %20 = load ptr, ptr %list.addr, align 8
  %21 = load ptr, ptr %20, align 8
  %m_prev6 = getelementptr inbounds %class.dll_base, ptr %21, i32 0, i32 1
  %22 = load ptr, ptr %m_prev6, align 8
  %m_next7 = getelementptr inbounds %class.dll_base, ptr %22, i32 0, i32 0
  store ptr %19, ptr %m_next7, align 8
  %23 = load ptr, ptr %list.addr, align 8
  %24 = load ptr, ptr %23, align 8
  %m_prev8 = getelementptr inbounds %class.dll_base, ptr %24, i32 0, i32 1
  %25 = load ptr, ptr %m_prev8, align 8
  %26 = load ptr, ptr %elem.addr, align 8
  %m_prev9 = getelementptr inbounds %class.dll_base, ptr %26, i32 0, i32 1
  store ptr %25, ptr %m_prev9, align 8
  %27 = load ptr, ptr %list.addr, align 8
  %28 = load ptr, ptr %27, align 8
  %29 = load ptr, ptr %elem.addr, align 8
  %m_next10 = getelementptr inbounds %class.dll_base, ptr %29, i32 0, i32 0
  store ptr %28, ptr %m_next10, align 8
  %30 = load ptr, ptr %elem.addr, align 8
  %31 = load ptr, ptr %list.addr, align 8
  %32 = load ptr, ptr %31, align 8
  %m_prev11 = getelementptr inbounds %class.dll_base, ptr %32, i32 0, i32 1
  store ptr %30, ptr %m_prev11, align 8
  %33 = load ptr, ptr %elem.addr, align 8
  %34 = load ptr, ptr %list.addr, align 8
  store ptr %33, ptr %34, align 8
  br label %if.end

if.end:                                           ; preds = %if.then1, %if.else
  br label %if.end12

if.end12:                                         ; preds = %if.end, %if.then
  ret void
}

; Function Attrs: mustprogress uwtable
define hidden void @_ZN3euf8ackerman7new_tmpEv(ptr noundef nonnull align 8 dereferenceable(68) %this) #5 align 2 {
entry:
  %this.addr = alloca ptr, align 8
  store ptr %this, ptr %this.addr, align 8
  %this1 = load ptr, ptr %this.addr, align 8
  %call = call noalias noundef ptr @_ZN6memory8allocateEm(i64 noundef 48)
  call void @_ZN3euf8ackerman9inferenceC2Ev(ptr noundef nonnull align 8 dereferenceable(45) %call)
  %m_tmp_inference = getelementptr inbounds %"class.euf::ackerman", ptr %this1, i32 0, i32 4
  store ptr %call, ptr %m_tmp_inference, align 8
  %m_tmp_inference2 = getelementptr inbounds %"class.euf::ackerman", ptr %this1, i32 0, i32 4
  %0 = load ptr, ptr %m_tmp_inference2, align 8
  %m_tmp_inference3 = getelementptr inbounds %"class.euf::ackerman", ptr %this1, i32 0, i32 4
  %1 = load ptr, ptr %m_tmp_inference3, align 8
  call void @_ZN8dll_baseIN3euf8ackerman9inferenceEE4initEPS2_(ptr noundef nonnull align 8 dereferenceable(16) %0, ptr noundef %1)
  ret void
}

; Function Attrs: mustprogress uwtable
define linkonce_odr hidden void @_ZN11ast_manager7inc_refEP3ast(ptr noundef nonnull align 8 dereferenceable(976) %this, ptr noundef %n) #5 comdat align 2 {
entry:
  %this.addr = alloca ptr, align 8
  %n.addr = alloca ptr, align 8
  store ptr %this, ptr %this.addr, align 8
  store ptr %n, ptr %n.addr, align 8
  %0 = load ptr, ptr %n.addr, align 8
  %tobool = icmp ne ptr %0, null
  br i1 %tobool, label %if.then, label %if.end

if.then:                                          ; preds = %entry
  %1 = load ptr, ptr %n.addr, align 8
  call void @_ZN3ast7inc_refEv(ptr noundef nonnull align 4 dereferenceable(16) %1)
  br label %if.end

if.end:                                           ; preds = %if.then, %entry
  ret void
}

; Function Attrs: mustprogress uwtable
define linkonce_odr hidden noundef nonnull align 8 dereferenceable(8) ptr @_ZN14core_hashtableI18default_hash_entryIPN3euf8ackerman9inferenceEENS2_14inference_hashENS2_12inference_eqEE19insert_if_not_thereERKS4_(ptr noundef nonnull align 8 dereferenceable(20) %this, ptr noundef nonnull align 8 dereferenceable(8) %e) #5 comdat align 2 {
entry:
  %this.addr = alloca ptr, align 8
  %e.addr = alloca ptr, align 8
  %et = alloca ptr, align 8
  store ptr %this, ptr %this.addr, align 8
  store ptr %e, ptr %e.addr, align 8
  %this1 = load ptr, ptr %this.addr, align 8
  %0 = load ptr, ptr %e.addr, align 8
  %call = call noundef zeroext i1 @_ZN14core_hashtableI18default_hash_entryIPN3euf8ackerman9inferenceEENS2_14inference_hashENS2_12inference_eqEE24insert_if_not_there_coreERKS4_RPS5_(ptr noundef nonnull align 8 dereferenceable(20) %this1, ptr noundef nonnull align 8 dereferenceable(8) %0, ptr noundef nonnull align 8 dereferenceable(8) %et)
  %1 = load ptr, ptr %et, align 8
  %call2 = call noundef nonnull align 8 dereferenceable(8) ptr @_ZN18default_hash_entryIPN3euf8ackerman9inferenceEE8get_dataEv(ptr noundef nonnull align 8 dereferenceable(16) %1)
  ret ptr %call2
}

; Function Attrs: mustprogress uwtable
define hidden void @_ZN3euf8ackerman6insertEv(ptr noundef nonnull align 8 dereferenceable(68) %this) #5 align 2 {
entry:
  %this.addr = alloca ptr, align 8
  %inf = alloca ptr, align 8
  %other = alloca ptr, align 8
  store ptr %this, ptr %this.addr, align 8
  %this1 = load ptr, ptr %this.addr, align 8
  %m_tmp_inference = getelementptr inbounds %"class.euf::ackerman", ptr %this1, i32 0, i32 4
  %0 = load ptr, ptr %m_tmp_inference, align 8
  store ptr %0, ptr %inf, align 8
  %m_table = getelementptr inbounds %"class.euf::ackerman", ptr %this1, i32 0, i32 2
  %call = call noundef nonnull align 8 dereferenceable(8) ptr @_ZN14core_hashtableI18default_hash_entryIPN3euf8ackerman9inferenceEENS2_14inference_hashENS2_12inference_eqEE19insert_if_not_thereERKS4_(ptr noundef nonnull align 8 dereferenceable(20) %m_table, ptr noundef nonnull align 8 dereferenceable(8) %inf)
  %1 = load ptr, ptr %call, align 8
  store ptr %1, ptr %other, align 8
  %2 = load ptr, ptr %other, align 8
  %3 = load ptr, ptr %inf, align 8
  %cmp = icmp eq ptr %2, %3
  br i1 %cmp, label %if.then, label %if.end

if.then:                                          ; preds = %entry
  %m = getelementptr inbounds %"class.euf::ackerman", ptr %this1, i32 0, i32 1
  %4 = load ptr, ptr %m, align 8
  %5 = load ptr, ptr %inf, align 8
  %a = getelementptr inbounds %"struct.euf::ackerman::inference", ptr %5, i32 0, i32 1
  %6 = load ptr, ptr %a, align 8
  call void @_ZN11ast_manager7inc_refEP3ast(ptr noundef nonnull align 8 dereferenceable(976) %4, ptr noundef %6)
  %m2 = getelementptr inbounds %"class.euf::ackerman", ptr %this1, i32 0, i32 1
  %7 = load ptr, ptr %m2, align 8
  %8 = load ptr, ptr %inf, align 8
  %b = getelementptr inbounds %"struct.euf::ackerman::inference", ptr %8, i32 0, i32 2
  %9 = load ptr, ptr %b, align 8
  call void @_ZN11ast_manager7inc_refEP3ast(ptr noundef nonnull align 8 dereferenceable(976) %7, ptr noundef %9)
  %m3 = getelementptr inbounds %"class.euf::ackerman", ptr %this1, i32 0, i32 1
  %10 = load ptr, ptr %m3, align 8
  %11 = load ptr, ptr %inf, align 8
  %c = getelementptr inbounds %"struct.euf::ackerman::inference", ptr %11, i32 0, i32 3
  %12 = load ptr, ptr %c, align 8
  call void @_ZN11ast_manager7inc_refEP3ast(ptr noundef nonnull align 8 dereferenceable(976) %10, ptr noundef %12)
  call void @_ZN3euf8ackerman7new_tmpEv(ptr noundef nonnull align 8 dereferenceable(68) %this1)
  br label %if.end

if.end:                                           ; preds = %if.then, %entry
  %13 = load ptr, ptr %other, align 8
  %m_count = getelementptr inbounds %"struct.euf::ackerman::inference", ptr %13, i32 0, i32 4
  %14 = load i32, ptr %m_count, align 8
  %inc = add i32 %14, 1
  store i32 %inc, ptr %m_count, align 8
  %m_queue = getelementptr inbounds %"class.euf::ackerman", ptr %this1, i32 0, i32 3
  %15 = load ptr, ptr %other, align 8
  call void @_ZN8dll_baseIN3euf8ackerman9inferenceEE13push_to_frontERPS2_S4_(ptr noundef nonnull align 8 dereferenceable(8) %m_queue, ptr noundef %15)
  ret void
}