; Function Attrs: mustprogress uwtable
define hidden void @_ZN3euf8ackerman6insertEv(ptr noundef nonnull align 8 dereferenceable(68) %this) local_unnamed_addr #3 align 2 {
entry:
  %temp.i.i = alloca ptr, align 8
  %et.i = alloca ptr, align 8
  %m_tmp_inference = getelementptr inbounds i8, ptr %this, i64 48
  %0 = load ptr, ptr %m_tmp_inference, align 8
  %m_table = getelementptr inbounds i8, ptr %this, i64 16
  call void @llvm.lifetime.start.p0(i64 8, ptr nonnull %et.i)
  call void @llvm.lifetime.start.p0(i64 8, ptr nonnull %temp.i.i)
  store ptr %0, ptr %temp.i.i, align 8
  %call.i.i = call noundef zeroext i1 @_ZN14core_hashtableI18default_hash_entryIPN3euf8ackerman9inferenceEENS2_14inference_hashENS2_12inference_eqEE24insert_if_not_there_coreEOS4_RPS5_(ptr noundef nonnull align 8 dereferenceable(20) %m_table, ptr noundef nonnull align 8 dereferenceable(8) %temp.i.i, ptr noundef nonnull align 8 dereferenceable(8) %et.i)
  call void @llvm.lifetime.end.p0(i64 8, ptr nonnull %temp.i.i)
  %1 = load ptr, ptr %et.i, align 8
  %m_data.i.i = getelementptr inbounds i8, ptr %1, i64 8
  call void @llvm.lifetime.end.p0(i64 8, ptr nonnull %et.i)
  %2 = load ptr, ptr %m_data.i.i, align 8
  %cmp = icmp eq ptr %2, %0
  br i1 %cmp, label %if.then, label %if.end

if.then:                                          ; preds = %entry
  %a = getelementptr inbounds i8, ptr %0, i64 16
  %3 = load ptr, ptr %a, align 8
  %tobool.not.i = icmp eq ptr %3, null
  br i1 %tobool.not.i, label %_ZN11ast_manager7inc_refEP3ast.exit, label %if.then.i

if.then.i:                                        ; preds = %if.then
  %m_ref_count.i.i = getelementptr inbounds i8, ptr %3, i64 8
  %4 = load i32, ptr %m_ref_count.i.i, align 4
  %inc.i.i = add i32 %4, 1
  store i32 %inc.i.i, ptr %m_ref_count.i.i, align 4
  br label %_ZN11ast_manager7inc_refEP3ast.exit

_ZN11ast_manager7inc_refEP3ast.exit:              ; preds = %if.then, %if.then.i
  %b = getelementptr inbounds i8, ptr %0, i64 24
  %5 = load ptr, ptr %b, align 8
  %tobool.not.i3 = icmp eq ptr %5, null
  br i1 %tobool.not.i3, label %_ZN11ast_manager7inc_refEP3ast.exit7, label %if.then.i4

if.then.i4:                                       ; preds = %_ZN11ast_manager7inc_refEP3ast.exit
  %m_ref_count.i.i5 = getelementptr inbounds i8, ptr %5, i64 8
  %6 = load i32, ptr %m_ref_count.i.i5, align 4
  %inc.i.i6 = add i32 %6, 1
  store i32 %inc.i.i6, ptr %m_ref_count.i.i5, align 4
  br label %_ZN11ast_manager7inc_refEP3ast.exit7

_ZN11ast_manager7inc_refEP3ast.exit7:             ; preds = %_ZN11ast_manager7inc_refEP3ast.exit, %if.then.i4
  %c = getelementptr inbounds i8, ptr %0, i64 32
  %7 = load ptr, ptr %c, align 8
  %tobool.not.i8 = icmp eq ptr %7, null
  br i1 %tobool.not.i8, label %_ZN11ast_manager7inc_refEP3ast.exit12, label %if.then.i9

if.then.i9:                                       ; preds = %_ZN11ast_manager7inc_refEP3ast.exit7
  %m_ref_count.i.i10 = getelementptr inbounds i8, ptr %7, i64 8
  %8 = load i32, ptr %m_ref_count.i.i10, align 4
  %inc.i.i11 = add i32 %8, 1
  store i32 %inc.i.i11, ptr %m_ref_count.i.i10, align 4
  br label %_ZN11ast_manager7inc_refEP3ast.exit12

_ZN11ast_manager7inc_refEP3ast.exit12:            ; preds = %_ZN11ast_manager7inc_refEP3ast.exit7, %if.then.i9
  %call.i = call noalias noundef ptr @_ZN6memory8allocateEm(i64 noundef 48)
  %9 = getelementptr inbounds i8, ptr %call.i, i64 16
  call void @llvm.memset.p0.i64(ptr noundef nonnull align 8 dereferenceable(45) %9, i8 0, i64 29, i1 false)
  store ptr %call.i, ptr %m_tmp_inference, align 8
  store ptr %call.i, ptr %call.i, align 8
  %m_prev.i.i = getelementptr inbounds i8, ptr %call.i, i64 8
  store ptr %call.i, ptr %m_prev.i.i, align 8
  br label %if.end

if.end:                                           ; preds = %_ZN11ast_manager7inc_refEP3ast.exit12, %entry
  %m_count = getelementptr inbounds i8, ptr %2, i64 40
  %10 = load i32, ptr %m_count, align 8
  %inc = add i32 %10, 1
  store i32 %inc, ptr %m_count, align 8
  %m_queue = getelementptr inbounds i8, ptr %this, i64 40
  %11 = load ptr, ptr %m_queue, align 8
  %tobool.not.i13 = icmp eq ptr %11, null
  br i1 %tobool.not.i13, label %if.then.i14, label %if.else.i

if.then.i14:                                      ; preds = %if.end
  store ptr %2, ptr %m_queue, align 8
  store ptr %2, ptr %2, align 8
  %m_prev.i = getelementptr inbounds i8, ptr %2, i64 8
  br label %if.end12.sink.split.i

if.else.i:                                        ; preds = %if.end
  %cmp.not.i = icmp eq ptr %11, %2
  br i1 %cmp.not.i, label %_ZN8dll_baseIN3euf8ackerman9inferenceEE13push_to_frontERPS2_S4_.exit, label %if.then1.i

if.then1.i:                                       ; preds = %if.else.i
  %12 = load ptr, ptr %2, align 8
  %m_prev3.i = getelementptr inbounds i8, ptr %2, i64 8
  %13 = load ptr, ptr %m_prev3.i, align 8
  store ptr %12, ptr %13, align 8
  %m_prev5.i = getelementptr inbounds i8, ptr %12, i64 8
  store ptr %13, ptr %m_prev5.i, align 8
  %14 = load ptr, ptr %m_queue, align 8
  %m_prev6.i = getelementptr inbounds i8, ptr %14, i64 8
  %15 = load ptr, ptr %m_prev6.i, align 8
  store ptr %2, ptr %15, align 8
  %16 = load ptr, ptr %m_queue, align 8
  %m_prev8.i = getelementptr inbounds i8, ptr %16, i64 8
  %17 = load ptr, ptr %m_prev8.i, align 8
  store ptr %17, ptr %m_prev3.i, align 8
  %18 = load ptr, ptr %m_queue, align 8
  store ptr %18, ptr %2, align 8
  %m_prev11.i = getelementptr inbounds i8, ptr %18, i64 8
  store ptr %2, ptr %m_prev11.i, align 8
  br label %if.end12.sink.split.i

if.end12.sink.split.i:                            ; preds = %if.then1.i, %if.then.i14
  %list.sink.i = phi ptr [ %m_queue, %if.then1.i ], [ %m_prev.i, %if.then.i14 ]
  store ptr %2, ptr %list.sink.i, align 8
  br label %_ZN8dll_baseIN3euf8ackerman9inferenceEE13push_to_frontERPS2_S4_.exit

_ZN8dll_baseIN3euf8ackerman9inferenceEE13push_to_frontERPS2_S4_.exit: ; preds = %if.else.i, %if.end12.sink.split.i
  ret void
}